; Function Attrs: mustprogress nofree norecurse nosync nounwind willreturn memory(read, inaccessiblemem: none) uwtable
define noundef nonnull ptr @_ZN6node_t11first_bytesEv(ptr noundef nonnull readonly align 8 captures(none) dereferenceable(8) %0) local_unnamed_addr #1 align 2 {
  %2 = load ptr, ptr %0, align 8, !tbaa !3
  %3 = getelementptr inbounds nuw i8, ptr %2, i64 12
  %4 = getelementptr inbounds nuw i8, ptr %2, i64 4
  %.0.copyload.i = load i32, ptr %4, align 1
  %5 = zext i32 %.0.copyload.i to i64
  %6 = getelementptr inbounds nuw i8, ptr %3, i64 %5
  ret ptr %6
}